target datalayout = "e-m:e-p270:32:32-p271:32:32-p272:64:64-i64:64-i128:128-f80:128-n8:16:32:64-S128"
target triple = "x86_64-pc-linux-gnu"

; Function Attrs: nounwind uwtable
define dso_local ptr @ziplistDeleteRange(ptr noundef %0, i32 noundef %1, i32 noundef %2) #0 {
  %4 = alloca ptr, align 8
  %5 = alloca i32, align 4
  %6 = alloca i32, align 4
  %7 = alloca ptr, align 8
  store ptr %0, ptr %4, align 8, !tbaa !5
  store i32 %1, ptr %5, align 4, !tbaa !12
  store i32 %2, ptr %6, align 4, !tbaa !12
  call void @llvm.lifetime.start.p0(i64 8, ptr %7) #11
  %8 = load ptr, ptr %4, align 8, !tbaa !5
  %9 = load i32, ptr %5, align 4, !tbaa !12
  %10 = call ptr @ziplistIndex(ptr noundef %8, i32 noundef %9)
  store ptr %10, ptr %7, align 8, !tbaa !5
  %11 = load ptr, ptr %7, align 8, !tbaa !5
  %12 = icmp eq ptr %11, null
  br i1 %12, label %13, label %15

13:                                               ; preds = %3
  %14 = load ptr, ptr %4, align 8, !tbaa !5
  br label %20

15:                                               ; preds = %3
  %16 = load ptr, ptr %4, align 8, !tbaa !5
  %17 = load ptr, ptr %7, align 8, !tbaa !5
  %18 = load i32, ptr %6, align 4, !tbaa !12
  %19 = call ptr @__ziplistDelete(ptr noundef %16, ptr noundef %17, i32 noundef %18)
  br label %20

20:                                               ; preds = %15, %13
  %21 = phi ptr [ %14, %13 ], [ %19, %15 ]
  call void @llvm.lifetime.end.p0(i64 8, ptr %7) #11
  ret ptr %21
}