; Function Attrs: nounwind uwtable
define dso_local noundef ptr @ziplistDeleteRange(ptr noundef %0, i32 noundef %1, i32 noundef %2) local_unnamed_addr #5 {
  %4 = tail call ptr @ziplistIndex(ptr noundef %0, i32 noundef %1)
  %5 = icmp eq ptr %4, null
  br i1 %5, label %8, label %6

6:                                                ; preds = %3
  %7 = tail call ptr @__ziplistDelete(ptr noundef %0, ptr noundef nonnull %4, i32 noundef %2)
  br label %8

8:                                                ; preds = %3, %6
  %9 = phi ptr [ %7, %6 ], [ %0, %3 ]
  ret ptr %9
}